; Function Attrs: mustprogress uwtable
define noundef nonnull align 8 dereferenceable(64) ptr @_ZN6icu_7714Transliterator18getAvailableTargetEiRKNS_13UnicodeStringERS1_(i32 noundef %0, ptr noundef nonnull align 8 dereferenceable(64) %1, ptr noundef nonnull returned align 8 dereferenceable(64) %2) local_unnamed_addr #1 align 2 personality ptr @__gxx_personality_v0 {
  %4 = alloca i32, align 4
  tail call void @umtx_lock_77(ptr noundef nonnull @_ZL13registryMutex)
  call void @llvm.lifetime.start.p0(i64 4, ptr nonnull %4) #21
  store i32 0, ptr %4, align 4, !tbaa !13
  %5 = load ptr, ptr @_ZL8registry, align 8, !tbaa !49
  %.not = icmp eq ptr %5, null
  br i1 %.not, label %6, label %9

6:                                                ; preds = %3
  %7 = invoke noundef signext i8 @_ZN6icu_7714Transliterator18initializeRegistryER10UErrorCode(ptr noundef nonnull align 4 dereferenceable(4) %4)
          to label %8 unwind label %12

8:                                                ; preds = %6
  %.not5 = icmp eq i8 %7, 0
  br i1 %.not5, label %_ZN6icu_7714Transliterator19_getAvailableTargetEiRKNS_13UnicodeStringERS1_.exit, label %._crit_edge

._crit_edge:                                      ; preds = %8
  %.pre = load ptr, ptr @_ZL8registry, align 8, !tbaa !49
  br label %9

9:                                                ; preds = %._crit_edge, %3
  %10 = phi ptr [ %.pre, %._crit_edge ], [ %5, %3 ]
  %11 = invoke noundef nonnull align 8 dereferenceable(64) ptr @_ZNK6icu_7722TransliteratorRegistry18getAvailableTargetEiRKNS_13UnicodeStringERS1_(ptr noundef nonnull align 8 dereferenceable(312) %10, i32 noundef %0, ptr noundef nonnull align 8 dereferenceable(64) %1, ptr noundef nonnull align 8 dereferenceable(64) %2)
          to label %_ZN6icu_7714Transliterator19_getAvailableTargetEiRKNS_13UnicodeStringERS1_.exit unwind label %12

12:                                               ; preds = %9, %6
  %13 = landingpad { ptr, i32 }
          cleanup
  call void @llvm.lifetime.end.p0(i64 4, ptr nonnull %4) #21
  invoke void @umtx_unlock_77(ptr noundef nonnull @_ZL13registryMutex)
          to label %_ZN6icu_775MutexD2Ev.exit unwind label %14

14:                                               ; preds = %12
  %15 = landingpad { ptr, i32 }
          catch ptr null
  %16 = extractvalue { ptr, i32 } %15, 0
  call void @__clang_call_terminate(ptr %16) #23
  unreachable

_ZN6icu_775MutexD2Ev.exit:                        ; preds = %12
  resume { ptr, i32 } %13

_ZN6icu_7714Transliterator19_getAvailableTargetEiRKNS_13UnicodeStringERS1_.exit: ; preds = %9, %8
  call void @llvm.lifetime.end.p0(i64 4, ptr nonnull %4) #21
  invoke void @umtx_unlock_77(ptr noundef nonnull @_ZL13registryMutex)
          to label %_ZN6icu_775MutexD2Ev.exit6 unwind label %17

17:                                               ; preds = %_ZN6icu_7714Transliterator19_getAvailableTargetEiRKNS_13UnicodeStringERS1_.exit
  %18 = landingpad { ptr, i32 }
          catch ptr null
  %19 = extractvalue { ptr, i32 } %18, 0
  call void @__clang_call_terminate(ptr %19) #23
  unreachable

_ZN6icu_775MutexD2Ev.exit6:                       ; preds = %_ZN6icu_7714Transliterator19_getAvailableTargetEiRKNS_13UnicodeStringERS1_.exit
  ret ptr %2
}